; Function Attrs: nounwind uwtable
define ptr @H5EA__hdr_protect(ptr noundef %0, i64 noundef %1, ptr noundef %2, i32 noundef %3) local_unnamed_addr #0 {
  %5 = alloca %struct.H5EA_hdr_cache_ud_t, align 8
  store ptr %0, ptr %5, align 8
  %6 = getelementptr inbounds i8, ptr %5, i64 8
  store i64 %1, ptr %6, align 8
  %7 = getelementptr inbounds i8, ptr %5, i64 16
  store ptr %2, ptr %7, align 8
  %8 = call ptr @H5AC_protect(ptr noundef %0, ptr noundef nonnull @H5AC_EARRAY_HDR, i64 noundef %1, ptr noundef nonnull %5, i32 noundef %3) #6
  %9 = icmp eq ptr %8, null
  br i1 %9, label %10, label %14

10:                                               ; preds = %4
  %11 = load i64, ptr @H5E_EARRAY_g, align 8
  %12 = load i64, ptr @H5E_CANTPROTECT_g, align 8
  %13 = call i32 (ptr, ptr, i32, i64, i64, ptr, ...) @H5E_printf_stack(ptr noundef nonnull @.str, ptr noundef nonnull @__func__.H5EA__hdr_protect, i32 noundef 632, i64 noundef %11, i64 noundef %12, ptr noundef nonnull @.str.18, i64 noundef %1) #6
  br label %37

14:                                               ; preds = %4
  %15 = getelementptr inbounds i8, ptr %8, i64 384
  store ptr %0, ptr %15, align 8
  %16 = getelementptr inbounds i8, ptr %8, i64 464
  %17 = load i8, ptr %16, align 8
  %18 = trunc i8 %17 to i1
  br i1 %18, label %19, label %37

19:                                               ; preds = %14
  %20 = getelementptr inbounds i8, ptr %8, i64 472
  %21 = load ptr, ptr %20, align 8
  %22 = icmp eq ptr %21, null
  br i1 %22, label %23, label %37

23:                                               ; preds = %19
  %24 = call ptr @H5AC_proxy_entry_create() #6
  store ptr %24, ptr %20, align 8
  %25 = icmp eq ptr %24, null
  br i1 %25, label %26, label %30

26:                                               ; preds = %23
  %27 = load i64, ptr @H5E_EARRAY_g, align 8
  %28 = load i64, ptr @H5E_CANTCREATE_g, align 8
  %29 = call i32 (ptr, ptr, i32, i64, i64, ptr, ...) @H5E_printf_stack(ptr noundef nonnull @.str, ptr noundef nonnull @__func__.H5EA__hdr_protect, i32 noundef 639, i64 noundef %27, i64 noundef %28, ptr noundef nonnull @.str.10) #6
  br label %37

30:                                               ; preds = %23
  %31 = call i32 @H5AC_proxy_entry_add_child(ptr noundef nonnull %24, ptr noundef %0, ptr noundef nonnull %8) #6
  %32 = icmp slt i32 %31, 0
  br i1 %32, label %33, label %37

33:                                               ; preds = %30
  %34 = load i64, ptr @H5E_EARRAY_g, align 8
  %35 = load i64, ptr @H5E_CANTSET_g, align 8
  %36 = call i32 (ptr, ptr, i32, i64, i64, ptr, ...) @H5E_printf_stack(ptr noundef nonnull @.str, ptr noundef nonnull @__func__.H5EA__hdr_protect, i32 noundef 644, i64 noundef %34, i64 noundef %35, ptr noundef nonnull @.str.12) #6
  br label %37

37:                                               ; preds = %14, %19, %30, %33, %26, %10
  %.0 = phi ptr [ null, %10 ], [ null, %26 ], [ null, %33 ], [ %8, %30 ], [ %8, %19 ], [ %8, %14 ]
  ret ptr %.0
}